target datalayout = "e-m:e-p270:32:32-p271:32:32-p272:64:64-i64:64-i128:128-f80:128-n8:16:32:64-S128"
target triple = "x86_64-pc-linux-gnu"

%struct.expert_field = type { i32, i32 }

@hf_rsl_ie_id = internal global i32 0, align 4
@hf_rsl_ie_length = internal global i32 0, align 4
@hf_rsl_cm_dtxd = internal global i32 0, align 4
@hf_rsl_cm_dtxu = internal global i32 0, align 4
@hf_rsl_speech_or_data = internal global i32 0, align 4
@hf_rsl_ch_rate_and_type = internal global i32 0, align 4
@hf_rsl_speech_coding_alg = internal global i32 0, align 4
@hf_rsl_t_nt_bit = internal global i32 0, align 4
@hf_rsl_ra_if_data_rte = internal global i32 0, align 4
@hf_rsl_data_rte = internal global i32 0, align 4
@hf_rsl_extension_bit = internal global i32 0, align 4
@hf_rsl_no_resources_required = internal global i32 0, align 4
@ett_ie_ch_mode = internal global i32 0, align 4
@ei_rsl_speech_or_data_indicator = internal global %struct.expert_field zeroinitializer, align 4
@.str.798 = private unnamed_addr constant [16 x i8] c"Channel Mode IE\00", align 1

; Function Attrs: null_pointer_is_valid sspstrong uwtable
define internal i32 @dissect_rsl_ie_ch_mode(ptr noundef %0, ptr noundef %1, ptr noundef %2, i32 noundef %3, i1 noundef zeroext %4) #0 {
  %6 = alloca i32, align 4
  %7 = alloca ptr, align 8
  %8 = alloca ptr, align 8
  %9 = alloca ptr, align 8
  %10 = alloca i32, align 4
  %11 = alloca i8, align 1
  %12 = alloca ptr, align 8
  %13 = alloca ptr, align 8
  %14 = alloca i8, align 1
  %15 = alloca i32, align 4
  %16 = alloca i8, align 1
  %17 = alloca i8, align 1
  %18 = alloca i32, align 4
  store ptr %0, ptr %7, align 8
  store ptr %1, ptr %8, align 8
  store ptr %2, ptr %9, align 8
  store i32 %3, ptr %10, align 4
  %19 = zext i1 %4 to i8
  store i8 %19, ptr %11, align 1
  call void @llvm.lifetime.start.p0(i64 8, ptr %12) #6
  call void @llvm.lifetime.start.p0(i64 8, ptr %13) #6
  call void @llvm.lifetime.start.p0(i64 1, ptr %14) #6
  call void @llvm.lifetime.start.p0(i64 4, ptr %15) #6
  call void @llvm.lifetime.start.p0(i64 1, ptr %16) #6
  call void @llvm.lifetime.start.p0(i64 1, ptr %17) #6
  %20 = load i8, ptr %11, align 1, !range !6, !noundef !7
  %21 = trunc i8 %20 to i1
  %22 = zext i1 %21 to i32
  %23 = icmp eq i32 %22, 0
  br i1 %23, label %24, label %34

24:                                               ; preds = %5
  %25 = load ptr, ptr %7, align 8
  %26 = load i32, ptr %10, align 4
  %27 = call zeroext i8 @tvb_get_uint8(ptr noundef %25, i32 noundef %26)
  store i8 %27, ptr %16, align 1
  %28 = load i8, ptr %16, align 1
  %29 = zext i8 %28 to i32
  %30 = icmp ne i32 %29, 6
  br i1 %30, label %31, label %33

31:                                               ; preds = %24
  %32 = load i32, ptr %10, align 4
  store i32 %32, ptr %6, align 4
  store i32 1, ptr %18, align 4
  br label %149

33:                                               ; preds = %24
  br label %34

34:                                               ; preds = %33, %5
  %35 = load ptr, ptr %9, align 8
  %36 = load ptr, ptr %7, align 8
  %37 = load i32, ptr %10, align 4
  %38 = load i32, ptr @ett_ie_ch_mode, align 4
  %39 = call ptr @proto_tree_add_subtree(ptr noundef %35, ptr noundef %36, i32 noundef %37, i32 noundef 0, i32 noundef %38, ptr noundef %12, ptr noundef @.str.798)
  store ptr %39, ptr %13, align 8
  %40 = load ptr, ptr %13, align 8
  %41 = load i32, ptr @hf_rsl_ie_id, align 4
  %42 = load ptr, ptr %7, align 8
  %43 = load i32, ptr %10, align 4
  %44 = call ptr @proto_tree_add_item(ptr noundef %40, i32 noundef %41, ptr noundef %42, i32 noundef %43, i32 noundef 1, i32 noundef 0)
  %45 = load i32, ptr %10, align 4
  %46 = add i32 %45, 1
  store i32 %46, ptr %10, align 4
  %47 = load ptr, ptr %7, align 8
  %48 = load i32, ptr %10, align 4
  %49 = call zeroext i8 @tvb_get_uint8(ptr noundef %47, i32 noundef %48)
  store i8 %49, ptr %14, align 1
  %50 = load ptr, ptr %12, align 8
  %51 = load i8, ptr %14, align 1
  %52 = zext i8 %51 to i32
  %53 = add i32 %52, 2
  call void @proto_item_set_len(ptr noundef %50, i32 noundef %53)
  %54 = load ptr, ptr %13, align 8
  %55 = load i32, ptr @hf_rsl_ie_length, align 4
  %56 = load ptr, ptr %7, align 8
  %57 = load i32, ptr %10, align 4
  %58 = call ptr @proto_tree_add_item(ptr noundef %54, i32 noundef %55, ptr noundef %56, i32 noundef %57, i32 noundef 1, i32 noundef 0)
  %59 = load i32, ptr %10, align 4
  %60 = add i32 %59, 1
  store i32 %60, ptr %10, align 4
  %61 = load i32, ptr %10, align 4
  store i32 %61, ptr %15, align 4
  %62 = load ptr, ptr %13, align 8
  %63 = load i32, ptr @hf_rsl_cm_dtxd, align 4
  %64 = load ptr, ptr %7, align 8
  %65 = load i32, ptr %10, align 4
  %66 = call ptr @proto_tree_add_item(ptr noundef %62, i32 noundef %63, ptr noundef %64, i32 noundef %65, i32 noundef 1, i32 noundef 0)
  %67 = load ptr, ptr %13, align 8
  %68 = load i32, ptr @hf_rsl_cm_dtxu, align 4
  %69 = load ptr, ptr %7, align 8
  %70 = load i32, ptr %10, align 4
  %71 = call ptr @proto_tree_add_item(ptr noundef %67, i32 noundef %68, ptr noundef %69, i32 noundef %70, i32 noundef 1, i32 noundef 0)
  %72 = load i32, ptr %10, align 4
  %73 = add i32 %72, 1
  store i32 %73, ptr %10, align 4
  %74 = load ptr, ptr %13, align 8
  %75 = load i32, ptr @hf_rsl_speech_or_data, align 4
  %76 = load ptr, ptr %7, align 8
  %77 = load i32, ptr %10, align 4
  %78 = call ptr @proto_tree_add_item(ptr noundef %74, i32 noundef %75, ptr noundef %76, i32 noundef %77, i32 noundef 1, i32 noundef 0)
  %79 = load ptr, ptr %7, align 8
  %80 = load i32, ptr %10, align 4
  %81 = call zeroext i8 @tvb_get_uint8(ptr noundef %79, i32 noundef %80)
  store i8 %81, ptr %17, align 1
  %82 = load i32, ptr %10, align 4
  %83 = add i32 %82, 1
  store i32 %83, ptr %10, align 4
  %84 = load ptr, ptr %13, align 8
  %85 = load i32, ptr @hf_rsl_ch_rate_and_type, align 4
  %86 = load ptr, ptr %7, align 8
  %87 = load i32, ptr %10, align 4
  %88 = call ptr @proto_tree_add_item(ptr noundef %84, i32 noundef %85, ptr noundef %86, i32 noundef %87, i32 noundef 1, i32 noundef 0)
  %89 = load i32, ptr %10, align 4
  %90 = add i32 %89, 1
  store i32 %90, ptr %10, align 4
  %91 = load i8, ptr %17, align 1
  %92 = zext i8 %91 to i32
  switch i32 %92, label %136 [
    i32 1, label %93
    i32 2, label %99
    i32 3, label %130
  ]

93:                                               ; preds = %34
  %94 = load ptr, ptr %13, align 8
  %95 = load i32, ptr @hf_rsl_speech_coding_alg, align 4
  %96 = load ptr, ptr %7, align 8
  %97 = load i32, ptr %10, align 4
  %98 = call ptr @proto_tree_add_item(ptr noundef %94, i32 noundef %95, ptr noundef %96, i32 noundef %97, i32 noundef 1, i32 noundef 0)
  br label %142

99:                                               ; preds = %34
  %100 = load ptr, ptr %13, align 8
  %101 = load i32, ptr @hf_rsl_extension_bit, align 4
  %102 = load ptr, ptr %7, align 8
  %103 = load i32, ptr %10, align 4
  %104 = call ptr @proto_tree_add_item(ptr noundef %100, i32 noundef %101, ptr noundef %102, i32 noundef %103, i32 noundef 1, i32 noundef 0)
  %105 = load ptr, ptr %13, align 8
  %106 = load i32, ptr @hf_rsl_t_nt_bit, align 4
  %107 = load ptr, ptr %7, align 8
  %108 = load i32, ptr %10, align 4
  %109 = call ptr @proto_tree_add_item(ptr noundef %105, i32 noundef %106, ptr noundef %107, i32 noundef %108, i32 noundef 1, i32 noundef 0)
  %110 = load ptr, ptr %7, align 8
  %111 = load i32, ptr %10, align 4
  %112 = call zeroext i8 @tvb_get_uint8(ptr noundef %110, i32 noundef %111)
  store i8 %112, ptr %17, align 1
  %113 = load i8, ptr %17, align 1
  %114 = zext i8 %113 to i32
  %115 = and i32 %114, 64
  %116 = icmp eq i32 %115, 64
  br i1 %116, label %117, label %123

117:                                              ; preds = %99
  %118 = load ptr, ptr %13, align 8
  %119 = load i32, ptr @hf_rsl_ra_if_data_rte, align 4
  %120 = load ptr, ptr %7, align 8
  %121 = load i32, ptr %10, align 4
  %122 = call ptr @proto_tree_add_item(ptr noundef %118, i32 noundef %119, ptr noundef %120, i32 noundef %121, i32 noundef 1, i32 noundef 0)
  br label %129

123:                                              ; preds = %99
  %124 = load ptr, ptr %13, align 8
  %125 = load i32, ptr @hf_rsl_data_rte, align 4
  %126 = load ptr, ptr %7, align 8
  %127 = load i32, ptr %10, align 4
  %128 = call ptr @proto_tree_add_item(ptr noundef %124, i32 noundef %125, ptr noundef %126, i32 noundef %127, i32 noundef 1, i32 noundef 0)
  br label %129

129:                                              ; preds = %123, %117
  br label %142

130:                                              ; preds = %34
  %131 = load ptr, ptr %13, align 8
  %132 = load i32, ptr @hf_rsl_no_resources_required, align 4
  %133 = load ptr, ptr %7, align 8
  %134 = load i32, ptr %10, align 4
  %135 = call ptr @proto_tree_add_item(ptr noundef %131, i32 noundef %132, ptr noundef %133, i32 noundef %134, i32 noundef 1, i32 noundef 0)
  br label %142

136:                                              ; preds = %34
  %137 = load ptr, ptr %13, align 8
  %138 = load ptr, ptr %8, align 8
  %139 = load ptr, ptr %7, align 8
  %140 = load i32, ptr %10, align 4
  %141 = call ptr @proto_tree_add_expert(ptr noundef %137, ptr noundef %138, ptr noundef @ei_rsl_speech_or_data_indicator, ptr noundef %139, i32 noundef %140, i32 noundef 1)
  br label %142

142:                                              ; preds = %136, %130, %129, %93
  %143 = load i32, ptr %10, align 4
  %144 = add i32 %143, 1
  store i32 %144, ptr %10, align 4
  %145 = load i32, ptr %15, align 4
  %146 = load i8, ptr %14, align 1
  %147 = zext i8 %146 to i32
  %148 = add i32 %145, %147
  store i32 %148, ptr %6, align 4
  store i32 1, ptr %18, align 4
  br label %149

149:                                              ; preds = %142, %31
  call void @llvm.lifetime.end.p0(i64 1, ptr %17) #6
  call void @llvm.lifetime.end.p0(i64 1, ptr %16) #6
  call void @llvm.lifetime.end.p0(i64 4, ptr %15) #6
  call void @llvm.lifetime.end.p0(i64 1, ptr %14) #6
  call void @llvm.lifetime.end.p0(i64 8, ptr %13) #6
  call void @llvm.lifetime.end.p0(i64 8, ptr %12) #6
  %150 = load i32, ptr %6, align 4
  ret i32 %150
}