; Function Attrs: null_pointer_is_valid sspstrong uwtable
define internal fastcc i32 @dissect_rsl_ie_ch_mode(ptr noundef %0, ptr noundef %1, ptr noundef %2, i32 noundef %3) unnamed_addr #0 {
  %5 = alloca ptr, align 8
  call void @llvm.lifetime.start.p0(i64 8, ptr nonnull %5) #6
  %6 = load i32, ptr @ett_ie_ch_mode, align 4
  %7 = call ptr @proto_tree_add_subtree(ptr noundef %2, ptr noundef %0, i32 noundef %3, i32 noundef 0, i32 noundef %6, ptr noundef nonnull %5, ptr noundef nonnull @.str.798)
  %8 = load i32, ptr @hf_rsl_ie_id, align 4
  %9 = call ptr @proto_tree_add_item(ptr noundef %7, i32 noundef %8, ptr noundef %0, i32 noundef %3, i32 noundef 1, i32 noundef 0)
  %10 = add i32 %3, 1
  %11 = call zeroext i8 @tvb_get_uint8(ptr noundef %0, i32 noundef %10)
  %12 = load ptr, ptr %5, align 8
  %13 = zext i8 %11 to i32
  %14 = add nuw nsw i32 %13, 2
  call void @proto_item_set_len(ptr noundef %12, i32 noundef %14)
  %15 = load i32, ptr @hf_rsl_ie_length, align 4
  %16 = call ptr @proto_tree_add_item(ptr noundef %7, i32 noundef %15, ptr noundef %0, i32 noundef %10, i32 noundef 1, i32 noundef 0)
  %17 = add i32 %3, 2
  %18 = load i32, ptr @hf_rsl_cm_dtxd, align 4
  %19 = call ptr @proto_tree_add_item(ptr noundef %7, i32 noundef %18, ptr noundef %0, i32 noundef %17, i32 noundef 1, i32 noundef 0)
  %20 = load i32, ptr @hf_rsl_cm_dtxu, align 4
  %21 = call ptr @proto_tree_add_item(ptr noundef %7, i32 noundef %20, ptr noundef %0, i32 noundef %17, i32 noundef 1, i32 noundef 0)
  %22 = add i32 %3, 3
  %23 = load i32, ptr @hf_rsl_speech_or_data, align 4
  %24 = call ptr @proto_tree_add_item(ptr noundef %7, i32 noundef %23, ptr noundef %0, i32 noundef %22, i32 noundef 1, i32 noundef 0)
  %25 = call zeroext i8 @tvb_get_uint8(ptr noundef %0, i32 noundef %22)
  %26 = add i32 %3, 4
  %27 = load i32, ptr @hf_rsl_ch_rate_and_type, align 4
  %28 = call ptr @proto_tree_add_item(ptr noundef %7, i32 noundef %27, ptr noundef %0, i32 noundef %26, i32 noundef 1, i32 noundef 0)
  %29 = add i32 %3, 5
  switch i8 %25, label %49 [
    i8 1, label %30
    i8 2, label %33
    i8 3, label %46
  ]

30:                                               ; preds = %4
  %31 = load i32, ptr @hf_rsl_speech_coding_alg, align 4
  %32 = call ptr @proto_tree_add_item(ptr noundef %7, i32 noundef %31, ptr noundef %0, i32 noundef %29, i32 noundef 1, i32 noundef 0)
  br label %51

33:                                               ; preds = %4
  %34 = load i32, ptr @hf_rsl_extension_bit, align 4
  %35 = call ptr @proto_tree_add_item(ptr noundef %7, i32 noundef %34, ptr noundef %0, i32 noundef %29, i32 noundef 1, i32 noundef 0)
  %36 = load i32, ptr @hf_rsl_t_nt_bit, align 4
  %37 = call ptr @proto_tree_add_item(ptr noundef %7, i32 noundef %36, ptr noundef %0, i32 noundef %29, i32 noundef 1, i32 noundef 0)
  %38 = call zeroext i8 @tvb_get_uint8(ptr noundef %0, i32 noundef %29)
  %39 = and i8 %38, 64
  %.not = icmp eq i8 %39, 0
  br i1 %.not, label %43, label %40

40:                                               ; preds = %33
  %41 = load i32, ptr @hf_rsl_ra_if_data_rte, align 4
  %42 = call ptr @proto_tree_add_item(ptr noundef %7, i32 noundef %41, ptr noundef %0, i32 noundef %29, i32 noundef 1, i32 noundef 0)
  br label %51

43:                                               ; preds = %33
  %44 = load i32, ptr @hf_rsl_data_rte, align 4
  %45 = call ptr @proto_tree_add_item(ptr noundef %7, i32 noundef %44, ptr noundef %0, i32 noundef %29, i32 noundef 1, i32 noundef 0)
  br label %51

46:                                               ; preds = %4
  %47 = load i32, ptr @hf_rsl_no_resources_required, align 4
  %48 = call ptr @proto_tree_add_item(ptr noundef %7, i32 noundef %47, ptr noundef %0, i32 noundef %29, i32 noundef 1, i32 noundef 0)
  br label %51

49:                                               ; preds = %4
  %50 = call ptr @proto_tree_add_expert(ptr noundef %7, ptr noundef %1, ptr noundef nonnull @ei_rsl_speech_or_data_indicator, ptr noundef %0, i32 noundef %29, i32 noundef 1)
  br label %51

51:                                               ; preds = %30, %46, %49, %43, %40
  %52 = add i32 %17, %13
  call void @llvm.lifetime.end.p0(i64 8, ptr nonnull %5) #6
  ret i32 %52
}